target datalayout = "e-m:e-p270:32:32-p271:32:32-p272:64:64-i64:64-i128:128-f80:128-n8:16:32:64-S128"
target triple = "x86_64-unknown-linux-gnu"

%"class.std::__cxx11::basic_string" = type { %"struct.std::__cxx11::basic_string<char>::_Alloc_hider", i64, %union.anon }
%"struct.std::__cxx11::basic_string<char>::_Alloc_hider" = type { ptr }
%union.anon = type { i64, [8 x i8] }
%"class.std::__cxx11::basic_ostringstream" = type { %"class.std::basic_ostream.base", %"class.std::__cxx11::basic_stringbuf", %"class.std::basic_ios" }
%"class.std::basic_ostream.base" = type { ptr }
%"class.std::__cxx11::basic_stringbuf" = type { %"class.std::basic_streambuf", i32, %"class.std::__cxx11::basic_string" }
%"class.std::basic_streambuf" = type { ptr, ptr, ptr, ptr, ptr, ptr, ptr, %"class.std::locale" }
%"class.std::locale" = type { ptr }
%"class.std::basic_ios" = type { %"class.std::ios_base", ptr, i8, i8, ptr, ptr, ptr, ptr }
%"class.std::ios_base" = type { ptr, i64, i64, i32, i32, i32, ptr, %"struct.std::ios_base::_Words", [8 x %"struct.std::ios_base::_Words"], i32, ptr, %"class.std::locale" }
%"struct.std::ios_base::_Words" = type { ptr, i64 }
%"struct.rocksdb::InternalStats::CacheEntryRoleStats" = type <{ i64, i64, i64, i64, %"class.std::__cxx11::basic_string", %"struct.std::array", %"struct.std::array", i32, i32, i64, i64, i32, [4 x i8] }>
%"struct.std::array" = type { [14 x i64] }

@.str.236 = private unnamed_addr constant [2 x i8] c"@\00", align 1
@.str.237 = private unnamed_addr constant [2 x i8] c"#\00", align 1

; Function Attrs: mustprogress nounwind uwtable
define linkonce_odr void @_ZN7rocksdb13InternalStats19CacheEntryRoleStatsD2Ev(ptr noundef nonnull align 8 dereferenceable(316) %this) unnamed_addr #1 comdat align 2 {
entry:
  %this.addr = alloca ptr, align 8
  store ptr %this, ptr %this.addr, align 8
  %this1 = load ptr, ptr %this.addr, align 8
  %cache_id = getelementptr inbounds %"struct.rocksdb::InternalStats::CacheEntryRoleStats", ptr %this1, i32 0, i32 4
  call void @_ZNSt7__cxx1112basic_stringIcSt11char_traitsIcESaIcEED1Ev(ptr noundef nonnull align 8 dereferenceable(32) %cache_id) #3
  ret void
}

; Function Attrs: mustprogress nounwind uwtable
define linkonce_odr noundef nonnull align 8 dereferenceable(316) ptr @_ZN7rocksdb13InternalStats19CacheEntryRoleStatsaSEOS1_(ptr noundef nonnull align 8 dereferenceable(316) %this, ptr noundef nonnull align 8 dereferenceable(316) %0) #1 comdat align 2 {
entry:
  %this.addr = alloca ptr, align 8
  %.addr = alloca ptr, align 8
  store ptr %this, ptr %this.addr, align 8
  store ptr %0, ptr %.addr, align 8
  %this1 = load ptr, ptr %this.addr, align 8
  %cache_capacity = getelementptr inbounds %"struct.rocksdb::InternalStats::CacheEntryRoleStats", ptr %this1, i32 0, i32 0
  %1 = load ptr, ptr %.addr, align 8
  %cache_capacity2 = getelementptr inbounds %"struct.rocksdb::InternalStats::CacheEntryRoleStats", ptr %1, i32 0, i32 0
  call void @llvm.memcpy.p0.p0.i64(ptr align 8 %cache_capacity, ptr align 8 %cache_capacity2, i64 32, i1 false)
  %cache_id = getelementptr inbounds %"struct.rocksdb::InternalStats::CacheEntryRoleStats", ptr %this1, i32 0, i32 4
  %2 = load ptr, ptr %.addr, align 8
  %cache_id3 = getelementptr inbounds %"struct.rocksdb::InternalStats::CacheEntryRoleStats", ptr %2, i32 0, i32 4
  %call = call noundef nonnull align 8 dereferenceable(32) ptr @_ZNSt7__cxx1112basic_stringIcSt11char_traitsIcESaIcEEaSEOS4_(ptr noundef nonnull align 8 dereferenceable(32) %cache_id, ptr noundef nonnull align 8 dereferenceable(32) %cache_id3) #3
  %total_charges = getelementptr inbounds %"struct.rocksdb::InternalStats::CacheEntryRoleStats", ptr %this1, i32 0, i32 5
  %3 = load ptr, ptr %.addr, align 8
  %total_charges4 = getelementptr inbounds %"struct.rocksdb::InternalStats::CacheEntryRoleStats", ptr %3, i32 0, i32 5
  call void @llvm.memcpy.p0.p0.i64(ptr align 8 %total_charges, ptr align 8 %total_charges4, i64 252, i1 false)
  ret ptr %this1
}

; Function Attrs: mustprogress nounwind uwtable
define linkonce_odr void @_ZN7rocksdb13InternalStats19CacheEntryRoleStatsC2Ev(ptr noundef nonnull align 8 dereferenceable(316) %this) unnamed_addr #1 comdat align 2 {
entry:
  %this.addr = alloca ptr, align 8
  store ptr %this, ptr %this.addr, align 8
  %this1 = load ptr, ptr %this.addr, align 8
  %cache_capacity = getelementptr inbounds %"struct.rocksdb::InternalStats::CacheEntryRoleStats", ptr %this1, i32 0, i32 0
  store i64 0, ptr %cache_capacity, align 8
  %cache_usage = getelementptr inbounds %"struct.rocksdb::InternalStats::CacheEntryRoleStats", ptr %this1, i32 0, i32 1
  store i64 0, ptr %cache_usage, align 8
  %table_size = getelementptr inbounds %"struct.rocksdb::InternalStats::CacheEntryRoleStats", ptr %this1, i32 0, i32 2
  store i64 0, ptr %table_size, align 8
  %occupancy = getelementptr inbounds %"struct.rocksdb::InternalStats::CacheEntryRoleStats", ptr %this1, i32 0, i32 3
  store i64 0, ptr %occupancy, align 8
  %cache_id = getelementptr inbounds %"struct.rocksdb::InternalStats::CacheEntryRoleStats", ptr %this1, i32 0, i32 4
  call void @_ZNSt7__cxx1112basic_stringIcSt11char_traitsIcESaIcEEC1Ev(ptr noundef nonnull align 8 dereferenceable(32) %cache_id) #3
  %collection_count = getelementptr inbounds %"struct.rocksdb::InternalStats::CacheEntryRoleStats", ptr %this1, i32 0, i32 7
  store i32 0, ptr %collection_count, align 8
  %copies_of_last_collection = getelementptr inbounds %"struct.rocksdb::InternalStats::CacheEntryRoleStats", ptr %this1, i32 0, i32 8
  store i32 0, ptr %copies_of_last_collection, align 4
  %last_start_time_micros_ = getelementptr inbounds %"struct.rocksdb::InternalStats::CacheEntryRoleStats", ptr %this1, i32 0, i32 9
  store i64 0, ptr %last_start_time_micros_, align 8
  %last_end_time_micros_ = getelementptr inbounds %"struct.rocksdb::InternalStats::CacheEntryRoleStats", ptr %this1, i32 0, i32 10
  store i64 0, ptr %last_end_time_micros_, align 8
  %hash_seed = getelementptr inbounds %"struct.rocksdb::InternalStats::CacheEntryRoleStats", ptr %this1, i32 0, i32 11
  store i32 0, ptr %hash_seed, align 8
  ret void
}

; Function Attrs: mustprogress nounwind uwtable
define linkonce_odr void @_ZN7rocksdb13InternalStats19CacheEntryRoleStats5ClearEv(ptr noundef nonnull align 8 dereferenceable(316) %this) #1 comdat align 2 {
entry:
  %this.addr = alloca ptr, align 8
  %saved_collection_count = alloca i32, align 4
  %ref.tmp = alloca %"struct.rocksdb::InternalStats::CacheEntryRoleStats", align 8
  store ptr %this, ptr %this.addr, align 8
  %this1 = load ptr, ptr %this.addr, align 8
  %collection_count = getelementptr inbounds %"struct.rocksdb::InternalStats::CacheEntryRoleStats", ptr %this1, i32 0, i32 7
  %0 = load i32, ptr %collection_count, align 8
  store i32 %0, ptr %saved_collection_count, align 4
  call void @llvm.memset.p0.i64(ptr align 8 %ref.tmp, i8 0, i64 320, i1 false)
  call void @_ZN7rocksdb13InternalStats19CacheEntryRoleStatsC2Ev(ptr noundef nonnull align 8 dereferenceable(316) %ref.tmp) #3
  %call = call noundef nonnull align 8 dereferenceable(316) ptr @_ZN7rocksdb13InternalStats19CacheEntryRoleStatsaSEOS1_(ptr noundef nonnull align 8 dereferenceable(316) %this1, ptr noundef nonnull align 8 dereferenceable(316) %ref.tmp) #3
  call void @_ZN7rocksdb13InternalStats19CacheEntryRoleStatsD2Ev(ptr noundef nonnull align 8 dereferenceable(316) %ref.tmp) #3
  %1 = load i32, ptr %saved_collection_count, align 4
  %collection_count2 = getelementptr inbounds %"struct.rocksdb::InternalStats::CacheEntryRoleStats", ptr %this1, i32 0, i32 7
  store i32 %1, ptr %collection_count2, align 8
  ret void
}

; Function Attrs: mustprogress uwtable
define void @_ZN7rocksdb13InternalStats19CacheEntryRoleStats15BeginCollectionEPNS_5CacheEPNS_11SystemClockEm(ptr noundef nonnull align 8 dereferenceable(316) %this, ptr noundef %cache, ptr noundef %0, i64 noundef %start_time_micros) #0 align 2 personality ptr @__gxx_personality_v0 {
entry:
  %this.addr = alloca ptr, align 8
  %cache.addr = alloca ptr, align 8
  %.addr = alloca ptr, align 8
  %start_time_micros.addr = alloca i64, align 8
  %str = alloca %"class.std::__cxx11::basic_ostringstream", align 8
  %exn.slot = alloca ptr, align 8
  %ehselector.slot = alloca i32, align 4
  %ref.tmp = alloca %"class.std::__cxx11::basic_string", align 8
  store ptr %this, ptr %this.addr, align 8
  store ptr %cache, ptr %cache.addr, align 8
  store ptr %0, ptr %.addr, align 8
  store i64 %start_time_micros, ptr %start_time_micros.addr, align 8
  %this1 = load ptr, ptr %this.addr, align 8
  call void @_ZN7rocksdb13InternalStats19CacheEntryRoleStats5ClearEv(ptr noundef nonnull align 8 dereferenceable(316) %this1)
  %1 = load i64, ptr %start_time_micros.addr, align 8
  %last_start_time_micros_ = getelementptr inbounds %"struct.rocksdb::InternalStats::CacheEntryRoleStats", ptr %this1, i32 0, i32 9
  store i64 %1, ptr %last_start_time_micros_, align 8
  %collection_count = getelementptr inbounds %"struct.rocksdb::InternalStats::CacheEntryRoleStats", ptr %this1, i32 0, i32 7
  %2 = load i32, ptr %collection_count, align 8
  %inc = add i32 %2, 1
  store i32 %inc, ptr %collection_count, align 8
  call void @_ZNSt7__cxx1119basic_ostringstreamIcSt11char_traitsIcESaIcEEC1Ev(ptr noundef nonnull align 8 dereferenceable(112) %str)
  %3 = load ptr, ptr %cache.addr, align 8
  %vtable = load ptr, ptr %3, align 8
  %vfn = getelementptr inbounds ptr, ptr %vtable, i64 2
  %4 = load ptr, ptr %vfn, align 8
  %call = invoke noundef ptr %4(ptr noundef nonnull align 8 dereferenceable(56) %3)
          to label %invoke.cont unwind label %lpad

invoke.cont:                                      ; preds = %entry
  %call3 = invoke noundef nonnull align 8 dereferenceable(8) ptr @_ZStlsISt11char_traitsIcEERSt13basic_ostreamIcT_ES5_PKc(ptr noundef nonnull align 8 dereferenceable(8) %str, ptr noundef %call)
          to label %invoke.cont2 unwind label %lpad

invoke.cont2:                                     ; preds = %invoke.cont
  %call5 = invoke noundef nonnull align 8 dereferenceable(8) ptr @_ZStlsISt11char_traitsIcEERSt13basic_ostreamIcT_ES5_PKc(ptr noundef nonnull align 8 dereferenceable(8) %call3, ptr noundef @.str.236)
          to label %invoke.cont4 unwind label %lpad

invoke.cont4:                                     ; preds = %invoke.cont2
  %5 = load ptr, ptr %cache.addr, align 8
  %call7 = invoke noundef nonnull align 8 dereferenceable(8) ptr @_ZNSolsEPKv(ptr noundef nonnull align 8 dereferenceable(8) %call5, ptr noundef %5)
          to label %invoke.cont6 unwind label %lpad

invoke.cont6:                                     ; preds = %invoke.cont4
  %call9 = invoke noundef nonnull align 8 dereferenceable(8) ptr @_ZStlsISt11char_traitsIcEERSt13basic_ostreamIcT_ES5_PKc(ptr noundef nonnull align 8 dereferenceable(8) %call7, ptr noundef @.str.237)
          to label %invoke.cont8 unwind label %lpad

invoke.cont8:                                     ; preds = %invoke.cont6
  %call11 = invoke noundef i64 @_ZN7rocksdb4port12GetProcessIDEv()
          to label %invoke.cont10 unwind label %lpad

invoke.cont10:                                    ; preds = %invoke.cont8
  %call13 = invoke noundef nonnull align 8 dereferenceable(8) ptr @_ZNSolsEl(ptr noundef nonnull align 8 dereferenceable(8) %call9, i64 noundef %call11)
          to label %invoke.cont12 unwind label %lpad

invoke.cont12:                                    ; preds = %invoke.cont10
  invoke void @_ZNKSt7__cxx1119basic_ostringstreamIcSt11char_traitsIcESaIcEE3strEv(ptr sret(%"class.std::__cxx11::basic_string") align 8 %ref.tmp, ptr noundef nonnull align 8 dereferenceable(112) %str)
          to label %invoke.cont14 unwind label %lpad

invoke.cont14:                                    ; preds = %invoke.cont12
  %cache_id = getelementptr inbounds %"struct.rocksdb::InternalStats::CacheEntryRoleStats", ptr %this1, i32 0, i32 4
  %call15 = call noundef nonnull align 8 dereferenceable(32) ptr @_ZNSt7__cxx1112basic_stringIcSt11char_traitsIcESaIcEEaSEOS4_(ptr noundef nonnull align 8 dereferenceable(32) %cache_id, ptr noundef nonnull align 8 dereferenceable(32) %ref.tmp) #3
  call void @_ZNSt7__cxx1112basic_stringIcSt11char_traitsIcESaIcEED1Ev(ptr noundef nonnull align 8 dereferenceable(32) %ref.tmp) #3
  %6 = load ptr, ptr %cache.addr, align 8
  %vtable16 = load ptr, ptr %6, align 8
  %vfn17 = getelementptr inbounds ptr, ptr %vtable16, i64 14
  %7 = load ptr, ptr %vfn17, align 8
  %call19 = invoke noundef i64 %7(ptr noundef nonnull align 8 dereferenceable(56) %6)
          to label %invoke.cont18 unwind label %lpad

invoke.cont18:                                    ; preds = %invoke.cont14
  %cache_capacity = getelementptr inbounds %"struct.rocksdb::InternalStats::CacheEntryRoleStats", ptr %this1, i32 0, i32 0
  store i64 %call19, ptr %cache_capacity, align 8
  %8 = load ptr, ptr %cache.addr, align 8
  %vtable20 = load ptr, ptr %8, align 8
  %vfn21 = getelementptr inbounds ptr, ptr %vtable20, i64 15
  %9 = load ptr, ptr %vfn21, align 8
  %call23 = invoke noundef i64 %9(ptr noundef nonnull align 8 dereferenceable(56) %8)
          to label %invoke.cont22 unwind label %lpad

invoke.cont22:                                    ; preds = %invoke.cont18
  %cache_usage = getelementptr inbounds %"struct.rocksdb::InternalStats::CacheEntryRoleStats", ptr %this1, i32 0, i32 1
  store i64 %call23, ptr %cache_usage, align 8
  %10 = load ptr, ptr %cache.addr, align 8
  %vtable24 = load ptr, ptr %10, align 8
  %vfn25 = getelementptr inbounds ptr, ptr %vtable24, i64 17
  %11 = load ptr, ptr %vfn25, align 8
  %call27 = invoke noundef i64 %11(ptr noundef nonnull align 8 dereferenceable(56) %10)
          to label %invoke.cont26 unwind label %lpad

invoke.cont26:                                    ; preds = %invoke.cont22
  %table_size = getelementptr inbounds %"struct.rocksdb::InternalStats::CacheEntryRoleStats", ptr %this1, i32 0, i32 2
  store i64 %call27, ptr %table_size, align 8
  %12 = load ptr, ptr %cache.addr, align 8
  %vtable28 = load ptr, ptr %12, align 8
  %vfn29 = getelementptr inbounds ptr, ptr %vtable28, i64 16
  %13 = load ptr, ptr %vfn29, align 8
  %call31 = invoke noundef i64 %13(ptr noundef nonnull align 8 dereferenceable(56) %12)
          to label %invoke.cont30 unwind label %lpad

invoke.cont30:                                    ; preds = %invoke.cont26
  %occupancy = getelementptr inbounds %"struct.rocksdb::InternalStats::CacheEntryRoleStats", ptr %this1, i32 0, i32 3
  store i64 %call31, ptr %occupancy, align 8
  %14 = load ptr, ptr %cache.addr, align 8
  %vtable32 = load ptr, ptr %14, align 8
  %vfn33 = getelementptr inbounds ptr, ptr %vtable32, i64 29
  %15 = load ptr, ptr %vfn33, align 8
  %call35 = invoke noundef i32 %15(ptr noundef nonnull align 8 dereferenceable(56) %14)
          to label %invoke.cont34 unwind label %lpad

invoke.cont34:                                    ; preds = %invoke.cont30
  %hash_seed = getelementptr inbounds %"struct.rocksdb::InternalStats::CacheEntryRoleStats", ptr %this1, i32 0, i32 11
  store i32 %call35, ptr %hash_seed, align 8
  call void @_ZNSt7__cxx1119basic_ostringstreamIcSt11char_traitsIcESaIcEED1Ev(ptr noundef nonnull align 8 dereferenceable(112) %str) #3
  ret void

lpad:                                             ; preds = %invoke.cont30, %invoke.cont26, %invoke.cont22, %invoke.cont18, %invoke.cont14, %invoke.cont12, %invoke.cont10, %invoke.cont8, %invoke.cont6, %invoke.cont4, %invoke.cont2, %invoke.cont, %entry
  %16 = landingpad { ptr, i32 }
          cleanup
  %17 = extractvalue { ptr, i32 } %16, 0
  store ptr %17, ptr %exn.slot, align 8
  %18 = extractvalue { ptr, i32 } %16, 1
  store i32 %18, ptr %ehselector.slot, align 4
  call void @_ZNSt7__cxx1119basic_ostringstreamIcSt11char_traitsIcESaIcEED1Ev(ptr noundef nonnull align 8 dereferenceable(112) %str) #3
  br label %eh.resume

eh.resume:                                        ; preds = %lpad
  %exn = load ptr, ptr %exn.slot, align 8
  %sel = load i32, ptr %ehselector.slot, align 4
  %lpad.val = insertvalue { ptr, i32 } poison, ptr %exn, 0
  %lpad.val36 = insertvalue { ptr, i32 } %lpad.val, i32 %sel, 1
  resume { ptr, i32 } %lpad.val36
}