; Function Attrs: mustprogress uwtable
define void @_ZN7rocksdb13InternalStats19CacheEntryRoleStats15BeginCollectionEPNS_5CacheEPNS_11SystemClockEm(ptr noundef nonnull align 8 dereferenceable(316) %this, ptr noundef %cache, ptr nocapture readnone %0, i64 noundef %start_time_micros) local_unnamed_addr #4 align 2 personality ptr @__gxx_personality_v0 {
entry:
  %ref.tmp.i = alloca %"struct.rocksdb::InternalStats::CacheEntryRoleStats", align 8
  %str = alloca %"class.std::__cxx11::basic_ostringstream", align 8
  %ref.tmp = alloca %"class.std::__cxx11::basic_string", align 8
  call void @llvm.lifetime.start.p0(i64 320, ptr nonnull %ref.tmp.i)
  %collection_count.i = getelementptr inbounds i8, ptr %this, i64 288
  %1 = load i32, ptr %collection_count.i, align 8
  %cache_id.i.i = getelementptr inbounds i8, ptr %ref.tmp.i, i64 32
  call void @llvm.memset.p0.i64(ptr noundef nonnull align 8 dereferenceable(320) %ref.tmp.i, i8 0, i64 320, i1 false)
  call void @_ZNSt7__cxx1112basic_stringIcSt11char_traitsIcESaIcEEC1Ev(ptr noundef nonnull align 8 dereferenceable(32) %cache_id.i.i) #28
  %collection_count.i.i = getelementptr inbounds i8, ptr %ref.tmp.i, i64 288
  call void @llvm.memset.p0.i64(ptr noundef nonnull align 8 dereferenceable(28) %collection_count.i.i, i8 0, i64 28, i1 false)
  call void @llvm.memcpy.p0.p0.i64(ptr noundef nonnull align 8 dereferenceable(32) %this, ptr noundef nonnull align 8 dereferenceable(32) %ref.tmp.i, i64 32, i1 false)
  %cache_id.i1.i = getelementptr inbounds i8, ptr %this, i64 32
  %call.i.i = call noundef nonnull align 8 dereferenceable(32) ptr @_ZNSt7__cxx1112basic_stringIcSt11char_traitsIcESaIcEEaSEOS4_(ptr noundef nonnull align 8 dereferenceable(32) %cache_id.i1.i, ptr noundef nonnull align 8 dereferenceable(32) %cache_id.i.i) #28
  %total_charges.i.i = getelementptr inbounds i8, ptr %this, i64 64
  %total_charges4.i.i = getelementptr inbounds i8, ptr %ref.tmp.i, i64 64
  call void @llvm.memcpy.p0.p0.i64(ptr noundef nonnull align 8 dereferenceable(252) %total_charges.i.i, ptr noundef nonnull align 8 dereferenceable(252) %total_charges4.i.i, i64 252, i1 false)
  call void @_ZNSt7__cxx1112basic_stringIcSt11char_traitsIcESaIcEED1Ev(ptr noundef nonnull align 8 dereferenceable(32) %cache_id.i.i) #28
  call void @llvm.lifetime.end.p0(i64 320, ptr nonnull %ref.tmp.i)
  %last_start_time_micros_ = getelementptr inbounds i8, ptr %this, i64 296
  store i64 %start_time_micros, ptr %last_start_time_micros_, align 8
  %inc = add i32 %1, 1
  store i32 %inc, ptr %collection_count.i, align 8
  call void @_ZNSt7__cxx1119basic_ostringstreamIcSt11char_traitsIcESaIcEEC1Ev(ptr noundef nonnull align 8 dereferenceable(112) %str)
  %vtable = load ptr, ptr %cache, align 8
  %vfn = getelementptr inbounds i8, ptr %vtable, i64 16
  %2 = load ptr, ptr %vfn, align 8
  %call = invoke noundef ptr %2(ptr noundef nonnull align 8 dereferenceable(56) %cache)
          to label %invoke.cont unwind label %lpad

invoke.cont:                                      ; preds = %entry
  %call3 = invoke noundef nonnull align 8 dereferenceable(8) ptr @_ZStlsISt11char_traitsIcEERSt13basic_ostreamIcT_ES5_PKc(ptr noundef nonnull align 8 dereferenceable(8) %str, ptr noundef %call)
          to label %invoke.cont2 unwind label %lpad

invoke.cont2:                                     ; preds = %invoke.cont
  %call5 = invoke noundef nonnull align 8 dereferenceable(8) ptr @_ZStlsISt11char_traitsIcEERSt13basic_ostreamIcT_ES5_PKc(ptr noundef nonnull align 8 dereferenceable(8) %call3, ptr noundef nonnull @.str.236)
          to label %invoke.cont4 unwind label %lpad

invoke.cont4:                                     ; preds = %invoke.cont2
  %call7 = invoke noundef nonnull align 8 dereferenceable(8) ptr @_ZNSolsEPKv(ptr noundef nonnull align 8 dereferenceable(8) %call5, ptr noundef nonnull %cache)
          to label %invoke.cont6 unwind label %lpad

invoke.cont6:                                     ; preds = %invoke.cont4
  %call9 = invoke noundef nonnull align 8 dereferenceable(8) ptr @_ZStlsISt11char_traitsIcEERSt13basic_ostreamIcT_ES5_PKc(ptr noundef nonnull align 8 dereferenceable(8) %call7, ptr noundef nonnull @.str.237)
          to label %invoke.cont8 unwind label %lpad

invoke.cont8:                                     ; preds = %invoke.cont6
  %call11 = invoke noundef i64 @_ZN7rocksdb4port12GetProcessIDEv()
          to label %invoke.cont10 unwind label %lpad

invoke.cont10:                                    ; preds = %invoke.cont8
  %call13 = invoke noundef nonnull align 8 dereferenceable(8) ptr @_ZNSolsEl(ptr noundef nonnull align 8 dereferenceable(8) %call9, i64 noundef %call11)
          to label %invoke.cont12 unwind label %lpad

invoke.cont12:                                    ; preds = %invoke.cont10
  invoke void @_ZNKSt7__cxx1119basic_ostringstreamIcSt11char_traitsIcESaIcEE3strEv(ptr nonnull sret(%"class.std::__cxx11::basic_string") align 8 %ref.tmp, ptr noundef nonnull align 8 dereferenceable(112) %str)
          to label %invoke.cont14 unwind label %lpad

invoke.cont14:                                    ; preds = %invoke.cont12
  %call15 = call noundef nonnull align 8 dereferenceable(32) ptr @_ZNSt7__cxx1112basic_stringIcSt11char_traitsIcESaIcEEaSEOS4_(ptr noundef nonnull align 8 dereferenceable(32) %cache_id.i1.i, ptr noundef nonnull align 8 dereferenceable(32) %ref.tmp) #28
  call void @_ZNSt7__cxx1112basic_stringIcSt11char_traitsIcESaIcEED1Ev(ptr noundef nonnull align 8 dereferenceable(32) %ref.tmp) #28
  %vtable16 = load ptr, ptr %cache, align 8
  %vfn17 = getelementptr inbounds i8, ptr %vtable16, i64 112
  %3 = load ptr, ptr %vfn17, align 8
  %call19 = invoke noundef i64 %3(ptr noundef nonnull align 8 dereferenceable(56) %cache)
          to label %invoke.cont18 unwind label %lpad

invoke.cont18:                                    ; preds = %invoke.cont14
  store i64 %call19, ptr %this, align 8
  %vtable20 = load ptr, ptr %cache, align 8
  %vfn21 = getelementptr inbounds i8, ptr %vtable20, i64 120
  %4 = load ptr, ptr %vfn21, align 8
  %call23 = invoke noundef i64 %4(ptr noundef nonnull align 8 dereferenceable(56) %cache)
          to label %invoke.cont22 unwind label %lpad

invoke.cont22:                                    ; preds = %invoke.cont18
  %cache_usage = getelementptr inbounds i8, ptr %this, i64 8
  store i64 %call23, ptr %cache_usage, align 8
  %vtable24 = load ptr, ptr %cache, align 8
  %vfn25 = getelementptr inbounds i8, ptr %vtable24, i64 136
  %5 = load ptr, ptr %vfn25, align 8
  %call27 = invoke noundef i64 %5(ptr noundef nonnull align 8 dereferenceable(56) %cache)
          to label %invoke.cont26 unwind label %lpad

invoke.cont26:                                    ; preds = %invoke.cont22
  %table_size = getelementptr inbounds i8, ptr %this, i64 16
  store i64 %call27, ptr %table_size, align 8
  %vtable28 = load ptr, ptr %cache, align 8
  %vfn29 = getelementptr inbounds i8, ptr %vtable28, i64 128
  %6 = load ptr, ptr %vfn29, align 8
  %call31 = invoke noundef i64 %6(ptr noundef nonnull align 8 dereferenceable(56) %cache)
          to label %invoke.cont30 unwind label %lpad

invoke.cont30:                                    ; preds = %invoke.cont26
  %occupancy = getelementptr inbounds i8, ptr %this, i64 24
  store i64 %call31, ptr %occupancy, align 8
  %vtable32 = load ptr, ptr %cache, align 8
  %vfn33 = getelementptr inbounds i8, ptr %vtable32, i64 232
  %7 = load ptr, ptr %vfn33, align 8
  %call35 = invoke noundef i32 %7(ptr noundef nonnull align 8 dereferenceable(56) %cache)
          to label %invoke.cont34 unwind label %lpad

invoke.cont34:                                    ; preds = %invoke.cont30
  %hash_seed = getelementptr inbounds i8, ptr %this, i64 312
  store i32 %call35, ptr %hash_seed, align 8
  call void @_ZNSt7__cxx1119basic_ostringstreamIcSt11char_traitsIcESaIcEED1Ev(ptr noundef nonnull align 8 dereferenceable(112) %str) #28
  ret void

lpad:                                             ; preds = %invoke.cont30, %invoke.cont26, %invoke.cont22, %invoke.cont18, %invoke.cont14, %invoke.cont12, %invoke.cont10, %invoke.cont8, %invoke.cont6, %invoke.cont4, %invoke.cont2, %invoke.cont, %entry
  %8 = landingpad { ptr, i32 }
          cleanup
  call void @_ZNSt7__cxx1119basic_ostringstreamIcSt11char_traitsIcESaIcEED1Ev(ptr noundef nonnull align 8 dereferenceable(112) %str) #28
  resume { ptr, i32 } %8
}